target datalayout = "e-m:e-p270:32:32-p271:32:32-p272:64:64-i64:64-i128:128-f80:128-n8:16:32:64-S128"
target triple = "x86_64-pc-linux-gnu"

%class.ptr_vector = type { %class.vector }
%class.vector = type { ptr }
%"class.euf::th_solver" = type { %"class.sat::extension", %"class.euf::th_model_builder", %"class.euf::th_decompile", %"class.euf::th_internalizer", ptr }
%"class.sat::extension" = type { ptr, i8, i32, %class.symbol, ptr }
%class.symbol = type { ptr }
%"class.euf::th_model_builder" = type { ptr }
%"class.euf::th_decompile" = type { ptr }
%"class.euf::th_internalizer" = type { ptr, %class.ptr_vector, %class.svector }
%class.svector = type { %class.vector.0 }
%class.vector.0 = type { ptr }
%class.svector.1 = type { %class.vector.2 }
%class.vector.2 = type { ptr }
%"class.array::solver" = type { %"class.euf::th_euf_solver.base", %class.array_util, %"struct.array::solver::stats", %class.scoped_ptr_vector, %class.ast2ast_trailmap, %class.ast2ast_trailmap.12, %class.obj_map.23, %class.union_find, %"struct.array::solver::axiom_record::hash", %"struct.array::solver::axiom_record::eq", %class.hashtable, %class.svector.30, i32, i32, i8, %class.scoped_ptr, %class.ptr_vector, %class.ptr_vector.32, %class.svector.34, %class.obj_map.36, %class.ptr_vector, %class.ptr_vector.41 }
%"class.euf::th_euf_solver.base" = type <{ %"class.euf::th_solver", ptr, %class.ptr_vector, %class.svector.1, i32 }>
%class.array_util = type { %class.array_recognizers, ptr }
%class.array_recognizers = type { i32 }
%"struct.array::solver::stats" = type { i32, i32, i32, i32, i32, i32, i32, i32, i32, i32, i32, i32, i32, i32 }
%class.scoped_ptr_vector = type { %class.ptr_vector.3 }
%class.ptr_vector.3 = type { %class.vector.4 }
%class.vector.4 = type { ptr }
%class.ast2ast_trailmap = type { %class.ref_vector, %class.ref_vector.7, %class.obj_map }
%class.ref_vector = type { %class.ref_vector_core }
%class.ref_vector_core = type { %class.ref_manager_wrapper, %class.ptr_vector.5 }
%class.ref_manager_wrapper = type { ptr }
%class.ptr_vector.5 = type { %class.vector.6 }
%class.vector.6 = type { ptr }
%class.ref_vector.7 = type { %class.ref_vector_core.8 }
%class.ref_vector_core.8 = type { %class.ref_manager_wrapper.9, %class.ptr_vector.10 }
%class.ref_manager_wrapper.9 = type { ptr }
%class.ptr_vector.10 = type { %class.vector.11 }
%class.vector.11 = type { ptr }
%class.obj_map = type { %class.core_hashtable }
%class.core_hashtable = type <{ ptr, i32, i32, i32, [4 x i8] }>
%class.ast2ast_trailmap.12 = type { %class.ref_vector, %class.ref_vector.13, %class.obj_map.18 }
%class.ref_vector.13 = type { %class.ref_vector_core.14 }
%class.ref_vector_core.14 = type { %class.ref_manager_wrapper.15, %class.ptr_vector.16 }
%class.ref_manager_wrapper.15 = type { ptr }
%class.ptr_vector.16 = type { %class.vector.17 }
%class.vector.17 = type { ptr }
%class.obj_map.18 = type { %class.core_hashtable.19 }
%class.core_hashtable.19 = type <{ ptr, i32, i32, i32, [4 x i8] }>
%class.obj_map.23 = type { %class.core_hashtable.24 }
%class.core_hashtable.24 = type <{ ptr, i32, i32, i32, [4 x i8] }>
%class.union_find = type { ptr, ptr, %class.svector.1, %class.svector.1, %class.svector.1, %"class.union_find<array::solver>::mk_var_trail" }
%"class.union_find<array::solver>::mk_var_trail" = type { %class.trail, ptr }
%class.trail = type { ptr }
%"struct.array::solver::axiom_record::hash" = type { ptr }
%"struct.array::solver::axiom_record::eq" = type { ptr }
%class.hashtable = type { %class.core_hashtable.base.29, [4 x i8] }
%class.core_hashtable.base.29 = type <{ %"struct.array::solver::axiom_record::hash", %"struct.array::solver::axiom_record::eq", ptr, i32, i32, i32 }>
%class.svector.30 = type { %class.vector.31 }
%class.vector.31 = type { ptr }
%class.scoped_ptr = type { ptr }
%class.ptr_vector.32 = type { %class.vector.33 }
%class.vector.33 = type { ptr }
%class.svector.34 = type { %class.vector.35 }
%class.vector.35 = type { ptr }
%class.obj_map.36 = type { %class.core_hashtable.37 }
%class.core_hashtable.37 = type <{ ptr, i32, i32, i32, [4 x i8] }>
%class.ptr_vector.41 = type { %class.vector.42 }
%class.vector.42 = type { ptr }

@.str.20 = private unnamed_addr constant [12 x i8] c"array store\00", align 1
@.str.21 = private unnamed_addr constant [16 x i8] c"array sel/store\00", align 1
@.str.22 = private unnamed_addr constant [16 x i8] c"array sel/const\00", align 1
@.str.23 = private unnamed_addr constant [14 x i8] c"array sel/map\00", align 1
@.str.24 = private unnamed_addr constant [19 x i8] c"array sel/as array\00", align 1
@.str.25 = private unnamed_addr constant [17 x i8] c"array sel/lambda\00", align 1
@.str.26 = private unnamed_addr constant [14 x i8] c"array def/map\00", align 1
@.str.27 = private unnamed_addr constant [16 x i8] c"array def/const\00", align 1
@.str.28 = private unnamed_addr constant [16 x i8] c"array def/store\00", align 1
@.str.29 = private unnamed_addr constant [13 x i8] c"array ext ax\00", align 1
@.str.30 = private unnamed_addr constant [14 x i8] c"array cong ax\00", align 1
@.str.31 = private unnamed_addr constant [14 x i8] c"array exp ax2\00", align 1
@.str.32 = private unnamed_addr constant [13 x i8] c"array splits\00", align 1

; Function Attrs: mustprogress uwtable
define hidden void @_ZNK5array6solver18collect_statisticsER10statistics(ptr noundef nonnull align 8 dereferenceable(536) %0, ptr noundef nonnull align 8 dereferenceable(16) %1) unnamed_addr #4 align 2 {
  %3 = alloca ptr, align 8
  %4 = alloca ptr, align 8
  store ptr %0, ptr %3, align 8, !tbaa !3
  store ptr %1, ptr %4, align 8, !tbaa !91
  %5 = load ptr, ptr %3, align 8
  %6 = load ptr, ptr %4, align 8, !tbaa !91
  %7 = getelementptr inbounds nuw %"class.array::solver", ptr %5, i32 0, i32 2
  %8 = getelementptr inbounds nuw %"struct.array::solver::stats", ptr %7, i32 0, i32 0
  %9 = load i32, ptr %8, align 8, !tbaa !93
  call void @_ZN10statistics6updateEPKcj(ptr noundef nonnull align 8 dereferenceable(16) %6, ptr noundef @.str.20, i32 noundef %9)
  %10 = load ptr, ptr %4, align 8, !tbaa !91
  %11 = getelementptr inbounds nuw %"class.array::solver", ptr %5, i32 0, i32 2
  %12 = getelementptr inbounds nuw %"struct.array::solver::stats", ptr %11, i32 0, i32 4
  %13 = load i32, ptr %12, align 8, !tbaa !156
  call void @_ZN10statistics6updateEPKcj(ptr noundef nonnull align 8 dereferenceable(16) %10, ptr noundef @.str.21, i32 noundef %13)
  %14 = load ptr, ptr %4, align 8, !tbaa !91
  %15 = getelementptr inbounds nuw %"class.array::solver", ptr %5, i32 0, i32 2
  %16 = getelementptr inbounds nuw %"struct.array::solver::stats", ptr %15, i32 0, i32 7
  %17 = load i32, ptr %16, align 4, !tbaa !157
  call void @_ZN10statistics6updateEPKcj(ptr noundef nonnull align 8 dereferenceable(16) %14, ptr noundef @.str.22, i32 noundef %17)
  %18 = load ptr, ptr %4, align 8, !tbaa !91
  %19 = getelementptr inbounds nuw %"class.array::solver", ptr %5, i32 0, i32 2
  %20 = getelementptr inbounds nuw %"struct.array::solver::stats", ptr %19, i32 0, i32 6
  %21 = load i32, ptr %20, align 8, !tbaa !158
  call void @_ZN10statistics6updateEPKcj(ptr noundef nonnull align 8 dereferenceable(16) %18, ptr noundef @.str.23, i32 noundef %21)
  %22 = load ptr, ptr %4, align 8, !tbaa !91
  %23 = getelementptr inbounds nuw %"class.array::solver", ptr %5, i32 0, i32 2
  %24 = getelementptr inbounds nuw %"struct.array::solver::stats", ptr %23, i32 0, i32 5
  %25 = load i32, ptr %24, align 4, !tbaa !159
  call void @_ZN10statistics6updateEPKcj(ptr noundef nonnull align 8 dereferenceable(16) %22, ptr noundef @.str.24, i32 noundef %25)
  %26 = load ptr, ptr %4, align 8, !tbaa !91
  %27 = getelementptr inbounds nuw %"class.array::solver", ptr %5, i32 0, i32 2
  %28 = getelementptr inbounds nuw %"struct.array::solver::stats", ptr %27, i32 0, i32 13
  %29 = load i32, ptr %28, align 4, !tbaa !160
  call void @_ZN10statistics6updateEPKcj(ptr noundef nonnull align 8 dereferenceable(16) %26, ptr noundef @.str.25, i32 noundef %29)
  %30 = load ptr, ptr %4, align 8, !tbaa !91
  %31 = getelementptr inbounds nuw %"class.array::solver", ptr %5, i32 0, i32 2
  %32 = getelementptr inbounds nuw %"struct.array::solver::stats", ptr %31, i32 0, i32 10
  %33 = load i32, ptr %32, align 8, !tbaa !161
  call void @_ZN10statistics6updateEPKcj(ptr noundef nonnull align 8 dereferenceable(16) %30, ptr noundef @.str.26, i32 noundef %33)
  %34 = load ptr, ptr %4, align 8, !tbaa !91
  %35 = getelementptr inbounds nuw %"class.array::solver", ptr %5, i32 0, i32 2
  %36 = getelementptr inbounds nuw %"struct.array::solver::stats", ptr %35, i32 0, i32 11
  %37 = load i32, ptr %36, align 4, !tbaa !162
  call void @_ZN10statistics6updateEPKcj(ptr noundef nonnull align 8 dereferenceable(16) %34, ptr noundef @.str.27, i32 noundef %37)
  %38 = load ptr, ptr %4, align 8, !tbaa !91
  %39 = getelementptr inbounds nuw %"class.array::solver", ptr %5, i32 0, i32 2
  %40 = getelementptr inbounds nuw %"struct.array::solver::stats", ptr %39, i32 0, i32 9
  %41 = load i32, ptr %40, align 4, !tbaa !163
  call void @_ZN10statistics6updateEPKcj(ptr noundef nonnull align 8 dereferenceable(16) %38, ptr noundef @.str.28, i32 noundef %41)
  %42 = load ptr, ptr %4, align 8, !tbaa !91
  %43 = getelementptr inbounds nuw %"class.array::solver", ptr %5, i32 0, i32 2
  %44 = getelementptr inbounds nuw %"struct.array::solver::stats", ptr %43, i32 0, i32 1
  %45 = load i32, ptr %44, align 4, !tbaa !164
  call void @_ZN10statistics6updateEPKcj(ptr noundef nonnull align 8 dereferenceable(16) %42, ptr noundef @.str.29, i32 noundef %45)
  %46 = load ptr, ptr %4, align 8, !tbaa !91
  %47 = getelementptr inbounds nuw %"class.array::solver", ptr %5, i32 0, i32 2
  %48 = getelementptr inbounds nuw %"struct.array::solver::stats", ptr %47, i32 0, i32 3
  %49 = load i32, ptr %48, align 4, !tbaa !165
  call void @_ZN10statistics6updateEPKcj(ptr noundef nonnull align 8 dereferenceable(16) %46, ptr noundef @.str.30, i32 noundef %49)
  %50 = load ptr, ptr %4, align 8, !tbaa !91
  %51 = getelementptr inbounds nuw %"class.array::solver", ptr %5, i32 0, i32 2
  %52 = getelementptr inbounds nuw %"struct.array::solver::stats", ptr %51, i32 0, i32 8
  %53 = load i32, ptr %52, align 8, !tbaa !166
  call void @_ZN10statistics6updateEPKcj(ptr noundef nonnull align 8 dereferenceable(16) %50, ptr noundef @.str.31, i32 noundef %53)
  %54 = load ptr, ptr %4, align 8, !tbaa !91
  %55 = getelementptr inbounds nuw %"class.array::solver", ptr %5, i32 0, i32 2
  %56 = getelementptr inbounds nuw %"struct.array::solver::stats", ptr %55, i32 0, i32 2
  %57 = load i32, ptr %56, align 8, !tbaa !167
  call void @_ZN10statistics6updateEPKcj(ptr noundef nonnull align 8 dereferenceable(16) %54, ptr noundef @.str.32, i32 noundef %57)
  ret void
}