; Function Attrs: mustprogress uwtable
define hidden void @_ZNK5array6solver18collect_statisticsER10statistics(ptr noundef nonnull readonly align 8 captures(none) dereferenceable(536) %0, ptr noundef nonnull align 8 dereferenceable(16) %1) unnamed_addr #3 align 2 {
  %3 = getelementptr inbounds nuw i8, ptr %0, i64 128
  %4 = load i32, ptr %3, align 8, !tbaa !132
  tail call void @_ZN10statistics6updateEPKcj(ptr noundef nonnull align 8 dereferenceable(16) %1, ptr noundef nonnull @.str.20, i32 noundef %4)
  %5 = getelementptr inbounds nuw i8, ptr %0, i64 144
  %6 = load i32, ptr %5, align 8, !tbaa !186
  tail call void @_ZN10statistics6updateEPKcj(ptr noundef nonnull align 8 dereferenceable(16) %1, ptr noundef nonnull @.str.21, i32 noundef %6)
  %7 = getelementptr inbounds nuw i8, ptr %0, i64 156
  %8 = load i32, ptr %7, align 4, !tbaa !187
  tail call void @_ZN10statistics6updateEPKcj(ptr noundef nonnull align 8 dereferenceable(16) %1, ptr noundef nonnull @.str.22, i32 noundef %8)
  %9 = getelementptr inbounds nuw i8, ptr %0, i64 152
  %10 = load i32, ptr %9, align 8, !tbaa !188
  tail call void @_ZN10statistics6updateEPKcj(ptr noundef nonnull align 8 dereferenceable(16) %1, ptr noundef nonnull @.str.23, i32 noundef %10)
  %11 = getelementptr inbounds nuw i8, ptr %0, i64 148
  %12 = load i32, ptr %11, align 4, !tbaa !189
  tail call void @_ZN10statistics6updateEPKcj(ptr noundef nonnull align 8 dereferenceable(16) %1, ptr noundef nonnull @.str.24, i32 noundef %12)
  %13 = getelementptr inbounds nuw i8, ptr %0, i64 180
  %14 = load i32, ptr %13, align 4, !tbaa !190
  tail call void @_ZN10statistics6updateEPKcj(ptr noundef nonnull align 8 dereferenceable(16) %1, ptr noundef nonnull @.str.25, i32 noundef %14)
  %15 = getelementptr inbounds nuw i8, ptr %0, i64 168
  %16 = load i32, ptr %15, align 8, !tbaa !191
  tail call void @_ZN10statistics6updateEPKcj(ptr noundef nonnull align 8 dereferenceable(16) %1, ptr noundef nonnull @.str.26, i32 noundef %16)
  %17 = getelementptr inbounds nuw i8, ptr %0, i64 172
  %18 = load i32, ptr %17, align 4, !tbaa !192
  tail call void @_ZN10statistics6updateEPKcj(ptr noundef nonnull align 8 dereferenceable(16) %1, ptr noundef nonnull @.str.27, i32 noundef %18)
  %19 = getelementptr inbounds nuw i8, ptr %0, i64 164
  %20 = load i32, ptr %19, align 4, !tbaa !193
  tail call void @_ZN10statistics6updateEPKcj(ptr noundef nonnull align 8 dereferenceable(16) %1, ptr noundef nonnull @.str.28, i32 noundef %20)
  %21 = getelementptr inbounds nuw i8, ptr %0, i64 132
  %22 = load i32, ptr %21, align 4, !tbaa !194
  tail call void @_ZN10statistics6updateEPKcj(ptr noundef nonnull align 8 dereferenceable(16) %1, ptr noundef nonnull @.str.29, i32 noundef %22)
  %23 = getelementptr inbounds nuw i8, ptr %0, i64 140
  %24 = load i32, ptr %23, align 4, !tbaa !195
  tail call void @_ZN10statistics6updateEPKcj(ptr noundef nonnull align 8 dereferenceable(16) %1, ptr noundef nonnull @.str.30, i32 noundef %24)
  %25 = getelementptr inbounds nuw i8, ptr %0, i64 160
  %26 = load i32, ptr %25, align 8, !tbaa !196
  tail call void @_ZN10statistics6updateEPKcj(ptr noundef nonnull align 8 dereferenceable(16) %1, ptr noundef nonnull @.str.31, i32 noundef %26)
  %27 = getelementptr inbounds nuw i8, ptr %0, i64 136
  %28 = load i32, ptr %27, align 8, !tbaa !197
  tail call void @_ZN10statistics6updateEPKcj(ptr noundef nonnull align 8 dereferenceable(16) %1, ptr noundef nonnull @.str.32, i32 noundef %28)
  ret void
}